; Function Attrs: nounwind uwtable
define internal noundef i32 @resweb(double %0, ptr noundef readonly captures(none) %1, ptr noundef %2, ptr noundef %3, ptr noundef readonly captures(none) %4) #0 {
  %6 = tail call ptr @N_VGetArrayPointer(ptr noundef %2) #12
  %7 = tail call ptr @N_VGetArrayPointer(ptr noundef %3) #12
  %8 = getelementptr inbounds nuw i8, ptr %4, i64 16
  %9 = load i64, ptr %8, align 8, !tbaa !21
  tail call fastcc void @Fweb(ptr noundef %1, ptr noundef %3, ptr noundef %4)
  br label %10

10:                                               ; preds = %5, %32
  %.03337 = phi i64 [ 0, %5 ], [ %33, %32 ]
  %11 = mul nuw nsw i64 %.03337, 40
  br label %12

12:                                               ; preds = %10, %30
  %.036 = phi i64 [ 0, %10 ], [ %31, %30 ]
  %13 = shl nuw nsw i64 %.036, 1
  %14 = add nuw nsw i64 %13, %11
  br label %15

15:                                               ; preds = %12, %29
  %16 = phi i1 [ true, %12 ], [ false, %29 ]
  %.03435 = phi i64 [ 0, %12 ], [ 1, %29 ]
  %17 = icmp slt i64 %.03435, %9
  %18 = or disjoint i64 %.03435, %14
  br i1 %17, label %19, label %25

19:                                               ; preds = %15
  %20 = getelementptr inbounds nuw double, ptr %6, i64 %18
  %21 = load double, ptr %20, align 8, !tbaa !27
  %22 = getelementptr inbounds nuw double, ptr %7, i64 %18
  %23 = load double, ptr %22, align 8, !tbaa !27
  %24 = fsub double %21, %23
  store double %24, ptr %22, align 8, !tbaa !27
  br label %29

25:                                               ; preds = %15
  %26 = getelementptr inbounds nuw double, ptr %7, i64 %18
  %27 = load double, ptr %26, align 8, !tbaa !27
  %28 = fneg double %27
  store double %28, ptr %26, align 8, !tbaa !27
  br label %29

29:                                               ; preds = %19, %25
  br i1 %16, label %15, label %30

30:                                               ; preds = %29
  %31 = add nuw nsw i64 %.036, 1
  %exitcond.not = icmp eq i64 %31, 20
  br i1 %exitcond.not, label %32, label %12

32:                                               ; preds = %30
  %33 = add nuw nsw i64 %.03337, 1
  %exitcond38.not = icmp eq i64 %33, 20
  br i1 %exitcond38.not, label %34, label %10

34:                                               ; preds = %32
  ret i32 0
}